Certificate:
    Data:
        Version: 3 (0x2)
        Serial Number: 1 (0x1)
        Signature Algorithm: md5WithRSAEncryption
        Issuer: C=AU, ST=leura, L=nws, O=Hackers CO, CN=Kiel/emailAddress=kiel@comcen.com.au
        Validity
            Not Before: May 24 13:17:49 2003 GMT
            Not After : May 23 13:17:49 2004 GMT
        Subject: C=AU, ST=leura, L=nsw, O=Hackers CO, CN=Kiel/emailAddress=kiel@comcen.com.au
        Subject Public Key Info:
            Public Key Algorithm: rsaEncryption
            RSA Public Key: (1024 bit)
                Modulus (1024 bit):
                    00:e5:a8:f2:96:71:4b:a7:80:a8:57:72:c7:f0:76:
                    96:18:88:9c:80:c6:fa:7e:bd:89:08:31:bc:e4:13:
                    b1:fb:76:19:6c:bc:fb:ad:a1:ac:b7:39:19:3a:73:
                    d2:da:c1:fb:4d:f2:55:3b:38:04:b1:53:55:12:62:
                    cd:46:93:5c:e4:77:b6:17:4e:aa:8d:1f:23:59:63:
                    ac:60:b2:b3:3c:fc:ac:a5:18:43:9f:76:b4:75:2b:
                    fe:54:a4:73:3b:5a:bb:dd:dc:46:e9:22:64:d8:53:
                    9e:b7:f8:4a:c3:2e:14:b2:35:fb:fc:83:a4:f5:97:
                    cb:e9:a4:3b:ac:4e:73:47:5b
                Exponent: 65537 (0x10001)
        X509v3 extensions:
            X509v3 Basic Constraints: 
            CA:FALSE
            Netscape Comment: 
            OpenSSL Generated Certificate
            X509v3 Subject Key Identifier: 
            0E:0A:74:C2:45:0D:B9:DD:14:A7:18:DE:FF:B6:6B:C6:BE:72:FD:01
            X509v3 Authority Key Identifier: 
            keyid:B4:04:D1:CC:C7:5A:93:5F:34:4F:C3:4E:E0:9D:4B:1D:12:E4:30:8C
            DirName:/C=AU/ST=leura/L=nws/O=Hackers CO/CN=Kiel/emailAddress=kiel@comcen.com.au
            serial:00

    Signature Algorithm: md5WithRSAEncryption
        5b:3f:b4:bb:35:e5:56:cb:ff:c9:41:9f:e8:a3:65:26:ed:d8:
        8f:4b:04:9e:e8:2b:c9:67:a2:39:da:d1:44:77:6a:43:1b:f3:
        f7:c8:91:62:e1:6b:72:3c:bf:bd:d4:82:a9:66:f4:d9:1f:02:
        b7:36:b2:b1:bd:61:7b:5a:2d:2e:55:4a:a9:98:a8:2b:98:62:
        3e:21:fc:fd:9c:38:6f:3e:c4:68:9e:0e:13:4b:77:60:db:e8:
        93:41:d3:7d:95:38:14:cf:d2:70:98:4b:a5:70:2a:a2:c2:c0:
        c3:92:87:be:0a:6d:43:86:78:70:b9:fb:16:f6:8e:51:c6:cd:
        fa:9c
-----BEGIN CERTIFICATE-----
MIIDVTCCAr6gAwIBAgIBATANBgkqhkiG9w0BAQQFADByMQswCQYDVQQGEwJBVTEO
MAwGA1UECBMFbGV1cmExDDAKBgNVBAcTA253czETMBEGA1UEChMKSGFja2VycyBD
TzENMAsGA1UEAxMES2llbDEhMB8GCSqGSIb3DQEJARYSa2llbEBjb21jZW4uY29t
LmF1MB4XDTAzMDUyNDEzMTc0OVoXDTA0MDUyMzEzMTc0OVowcjELMAkGA1UEBhMC
QVUxDjAMBgNVBAgTBWxldXJhMQwwCgYDVQQHEwNuc3cxEzARBgNVBAoTCkhhY2tl
cnMgQ08xDTALBgNVBAMTBEtpZWwxITAfBgkqhkiG9w0BCQEWEmtpZWxAY29tY2Vu
LmNvbS5hdTCBnzANBgkqhkiG9w0BAQEFAAOBjQAwgYkCgYEA5ajylnFLp4CoV3LH
8HaWGIicgMb6fr2JCDG85BOx+3YZbLz7raGstzkZOnPS2sH7TfJVOzgEsVNVEmLN
RpNc5He2F06qjR8jWWOsYLKzPPyspRhDn3a0dSv+VKRzO1q73dxG6SJk2FOet/hK
wy4UsjX7/IOk9ZfL6aQ7rE5zR1sCAwEAAaOB+jCB9zAJBgNVHRMEAjAAMCwGCWCG
SAGG+EIBDQQfFh1PcGVuU1NMIEdlbmVyYXRlZCBDZXJ0aWZpY2F0ZTAdBgNVHQ4E
FgQUDgp0wkUNud0Upxje/7Zrxr5y/QEwgZwGA1UdIwSBlDCBkYAUtATRzMdak180
T8NO4J1LHRLkMIyhdqR0MHIxCzAJBgNVBAYTAkFVMQ4wDAYDVQQIEwVsZXVyYTEM
MAoGA1UEBxMDbndzMRMwEQYDVQQKEwpIYWNrZXJzIENPMQ0wCwYDVQQDEwRLaWVs
MSEwHwYJKoZIhvcNAQkBFhJraWVsQGNvbWNlbi5jb20uYXWCAQAwDQYJKoZIhvcN
AQEEBQADgYEAWz+0uzXlVsv/yUGf6KNlJu3Yj0sEnugryWeiOdrRRHdqQxvz98iR
YuFrcjy/vdSCqWb02R8Ctzaysb1he1otLlVKqZioK5hiPiH8/Zw4bz7EaJ4OE0t3
YNvok0HTfZU4FM/ScJhLpXAqosLAw5KHvgptQ4Z4cLn7FvaOUcbN+pw=
-----END CERTIFICATE-----
